
spinner01.elf:     file format elf32-littlearm


Disassembly of section .text:

08000000 <_start>:
 8000000:	20001000 	andcs	r1, r0, r0
 8000004:	08000041 	stmdaeq	r0, {r0, r6}
 8000008:	08000047 	stmdaeq	r0, {r0, r1, r2, r6}
 800000c:	08000047 	stmdaeq	r0, {r0, r1, r2, r6}
 8000010:	08000047 	stmdaeq	r0, {r0, r1, r2, r6}
 8000014:	08000047 	stmdaeq	r0, {r0, r1, r2, r6}
 8000018:	08000047 	stmdaeq	r0, {r0, r1, r2, r6}
 800001c:	08000047 	stmdaeq	r0, {r0, r1, r2, r6}
 8000020:	08000047 	stmdaeq	r0, {r0, r1, r2, r6}
 8000024:	08000047 	stmdaeq	r0, {r0, r1, r2, r6}
 8000028:	08000047 	stmdaeq	r0, {r0, r1, r2, r6}
 800002c:	08000047 	stmdaeq	r0, {r0, r1, r2, r6}
 8000030:	08000047 	stmdaeq	r0, {r0, r1, r2, r6}
 8000034:	08000047 	stmdaeq	r0, {r0, r1, r2, r6}
 8000038:	08000047 	stmdaeq	r0, {r0, r1, r2, r6}
 800003c:	08000047 	stmdaeq	r0, {r0, r1, r2, r6}

08000040 <reset>:
 8000040:	f000 f814 	bl	800006c <notmain>
 8000044:	e7ff      	b.n	8000046 <hang>

08000046 <hang>:
 8000046:	e7fe      	b.n	8000046 <hang>

08000048 <PUT16>:
 8000048:	8001      	strh	r1, [r0, #0]
 800004a:	4770      	bx	lr

0800004c <PUT32>:
 800004c:	6001      	str	r1, [r0, #0]
 800004e:	4770      	bx	lr

08000050 <GET32>:
 8000050:	6800      	ldr	r0, [r0, #0]
 8000052:	4770      	bx	lr

08000054 <dummy>:
 8000054:	4770      	bx	lr
 8000056:	46c0      	nop			; (mov r8, r8)

08000058 <delay>:
 8000058:	b510      	push	{r4, lr}
 800005a:	2400      	movs	r4, #0
 800005c:	4620      	mov	r0, r4
 800005e:	3401      	adds	r4, #1
 8000060:	f7ff fff8 	bl	8000054 <dummy>
 8000064:	f5b4 5f80 	cmp.w	r4, #4096	; 0x1000
 8000068:	d1f8      	bne.n	800005c <delay+0x4>
 800006a:	bd10      	pop	{r4, pc}

0800006c <notmain>:
 800006c:	e92d 4ff8 	stmdb	sp!, {r3, r4, r5, r6, r7, r8, r9, r10, r11, lr}
 8000070:	4826      	ldr	r0, [pc, #152]	; (800010c <notmain+0xa0>)
 8000072:	4d27      	ldr	r5, [pc, #156]	; (8000110 <notmain+0xa4>)
 8000074:	f8df b0b0 	ldr.w	r11, [pc, #176]	; 8000128 <notmain+0xbc>
 8000078:	f8df a0b0 	ldr.w	r10, [pc, #176]	; 800012c <notmain+0xc0>
 800007c:	f7ff ffe8 	bl	8000050 <GET32>
 8000080:	f040 0111 	orr.w	r1, r0, #17
 8000084:	4821      	ldr	r0, [pc, #132]	; (800010c <notmain+0xa0>)
 8000086:	f7ff ffe1 	bl	800004c <PUT32>
 800008a:	f04f 4128 	mov.w	r1, #2818572288	; 0xa8000000
 800008e:	4628      	mov	r0, r5
 8000090:	f7ff ffdc 	bl	800004c <PUT32>
 8000094:	2100      	movs	r1, #0
 8000096:	481f      	ldr	r0, [pc, #124]	; (8000114 <notmain+0xa8>)
 8000098:	f7ff ffd8 	bl	800004c <PUT32>
 800009c:	f44f 017f 	mov.w	r1, #16711680	; 0xff0000
 80000a0:	481d      	ldr	r0, [pc, #116]	; (8000118 <notmain+0xac>)
 80000a2:	f7ff ffd3 	bl	800004c <PUT32>
 80000a6:	f245 5155 	movw	r1, #21845	; 0x5555
 80000aa:	481c      	ldr	r0, [pc, #112]	; (800011c <notmain+0xb0>)
 80000ac:	f7ff ffce 	bl	800004c <PUT32>
 80000b0:	2100      	movs	r1, #0
 80000b2:	481b      	ldr	r0, [pc, #108]	; (8000120 <notmain+0xb4>)
 80000b4:	f7ff ffca 	bl	800004c <PUT32>
 80000b8:	f44f 017f 	mov.w	r1, #16711680	; 0xff0000
 80000bc:	4819      	ldr	r0, [pc, #100]	; (8000124 <notmain+0xb8>)
 80000be:	f7ff ffc5 	bl	800004c <PUT32>
 80000c2:	f8df 806c 	ldr.w	r8, [pc, #108]	; 8000130 <notmain+0xc4>
 80000c6:	4651      	mov	r1, r10
 80000c8:	2601      	movs	r6, #1
 80000ca:	4816      	ldr	r0, [pc, #88]	; (8000124 <notmain+0xb8>)
 80000cc:	f7ff ffbe 	bl	800004c <PUT32>
 80000d0:	2764      	movs	r7, #100	; 0x64
 80000d2:	2400      	movs	r4, #0
 80000d4:	fa06 f104 	lsl.w	r1, r6, r4
 80000d8:	f041 4128 	orr.w	r1, r1, #2818572288	; 0xa8000000
 80000dc:	4628      	mov	r0, r5
 80000de:	f7ff ffb5 	bl	800004c <PUT32>
 80000e2:	f04f 0900 	mov.w	r9, #0
 80000e6:	4648      	mov	r0, r9
 80000e8:	f109 0901 	add.w	r9, r9, #1
 80000ec:	f7ff ffb2 	bl	8000054 <dummy>
 80000f0:	f5b9 5f80 	cmp.w	r9, #4096	; 0x1000
 80000f4:	d1f7      	bne.n	80000e6 <notmain+0x7a>
 80000f6:	3402      	adds	r4, #2
 80000f8:	2c08      	cmp	r4, #8
 80000fa:	d1eb      	bne.n	80000d4 <notmain+0x68>
 80000fc:	3f01      	subs	r7, #1
 80000fe:	d1e8      	bne.n	80000d2 <notmain+0x66>
 8000100:	45d8      	cmp	r8, r11
 8000102:	d0de      	beq.n	80000c2 <notmain+0x56>
 8000104:	f858 1f04 	ldr.w	r1, [r8, #4]!
 8000108:	e7df      	b.n	80000ca <notmain+0x5e>
 800010a:	bf00      	nop
 800010c:	40023830 	andmi	r3, r2, r0, lsr r8
 8000110:	40020000 	andmi	r0, r2, r0
 8000114:	40020004 	andmi	r0, r2, r4
 8000118:	40020018 	andmi	r0, r2, r8, lsl r0
 800011c:	40021000 	andmi	r1, r2, r0
 8000120:	40021004 	andmi	r1, r2, r4
 8000124:	40021018 	andmi	r1, r2, r8, lsl r0
 8000128:	08000158 	stmdaeq	r0, {r3, r4, r6, r8}
 800012c:	001100ee 	andseq	r0, r1, lr, ror #1
 8000130:	08000134 	stmdaeq	r0, {r2, r4, r5, r8}

Disassembly of section .rodata:

08000134 <seven>:
 8000134:	001100ee 	andseq	r0, r1, lr, ror #1
 8000138:	00d70028 	sbcseq	r0, r7, r8, lsr #32
 800013c:	003200cd 	eorseq	r0, r2, sp, asr #1
 8000140:	0092006d 	addseq	r0, r2, sp, rrx
 8000144:	00d4002b 	sbcseq	r0, r4, r11, lsr #32
 8000148:	00980067 	addseq	r0, r8, r7, rrx
 800014c:	001800e7 	andseq	r0, r8, r7, ror #1
 8000150:	00d3002c 	sbcseq	r0, r3, r12, lsr #32
 8000154:	001000ef 	andseq	r0, r0, pc, ror #1
 8000158:	00d0002f 	sbcseq	r0, r0, pc, lsr #32
 800015c:	00ff0000 	rscseq	r0, pc, r0
 8000160:	00ff0000 	rscseq	r0, pc, r0
 8000164:	00ff0000 	rscseq	r0, pc, r0
 8000168:	00ff0000 	rscseq	r0, pc, r0
 800016c:	00ff0000 	rscseq	r0, pc, r0
 8000170:	00ff0000 	rscseq	r0, pc, r0

Disassembly of section .ARM.attributes:

00000000 <.ARM.attributes>:
   0:	00002e41 	andeq	r2, r0, r1, asr #28
   4:	61656100 	cmnvs	r5, r0, lsl #2
   8:	01006962 	tsteq	r0, r2, ror #18
   c:	00000024 	andeq	r0, r0, r4, lsr #32
  10:	726f4305 	rsbvc	r4, pc, #335544320	; 0x14000000
  14:	2d786574 	cfldr64cs	mvdx6, [r8, #-464]!	; 0xfffffe30
  18:	0600344d 	streq	r3, [r0], -sp, asr #8
  1c:	094d070d 	stmdbeq	sp, {r0, r2, r3, r8, r9, r10}^
  20:	14041202 	strne	r1, [r4], #-514	; 0xfffffdfe
  24:	17011501 	strne	r1, [r1, -r1, lsl #10]
  28:	1a011803 	bne	4603c <_start-0x7fb9fc4>
  2c:	Address 0x000000000000002c is out of bounds.


Disassembly of section .comment:

00000000 <.comment>:
   0:	3a434347 	bcc	10d0d24 <_start-0x6f2f2dc>
   4:	4e472820 	cdpmi	8, 4, cr2, cr7, cr0, {1}
   8:	37202955 			; <UNDEFINED> instruction: 0x37202955
   c:	302e332e 	eorcc	r3, lr, lr, lsr #6
	...
